target datalayout = "e-m:e-p270:32:32-p271:32:32-p272:64:64-i64:64-i128:128-f80:128-n8:16:32:64-S128"
target triple = "x86_64-pc-linux-gnu"

%"class.std::__cxx11::basic_string" = type { %"struct.std::__cxx11::basic_string<char>::_Alloc_hider", i64, %union.anon }
%"struct.std::__cxx11::basic_string<char>::_Alloc_hider" = type { ptr }
%union.anon = type { i64, [8 x i8] }
%"class.llvm::StringRef" = type { ptr, i64 }
%"class.clang::installapi::DylibVerifier" = type { %"class.llvm::MachO::RecordVisitor", %"class.llvm::SmallVector", %"class.llvm::SmallVector.0", %"class.std::map", i32, i8, i8, %"class.llvm::StringRef", %"class.std::unique_ptr", %"class.llvm::StringMap", %"struct.clang::installapi::DylibVerifier::VerifierContext", ptr, %"class.llvm::SmallVector.10" }
%"class.llvm::MachO::RecordVisitor" = type { ptr }
%"class.llvm::SmallVector" = type { %"class.llvm::SmallVectorImpl", %"struct.llvm::SmallVectorStorage" }
%"class.llvm::SmallVectorImpl" = type { %"class.llvm::SmallVectorTemplateBase" }
%"class.llvm::SmallVectorTemplateBase" = type { %"class.llvm::SmallVectorTemplateCommon" }
%"class.llvm::SmallVectorTemplateCommon" = type { %"class.llvm::SmallVectorBase" }
%"class.llvm::SmallVectorBase" = type { ptr, i32, i32 }
%"struct.llvm::SmallVectorStorage" = type { [64 x i8] }
%"class.llvm::SmallVector.0" = type { %"class.llvm::SmallVectorImpl.1", %"struct.llvm::SmallVectorStorage.4" }
%"class.llvm::SmallVectorImpl.1" = type { %"class.llvm::SmallVectorTemplateBase.2" }
%"class.llvm::SmallVectorTemplateBase.2" = type { %"class.llvm::SmallVectorTemplateCommon.3" }
%"class.llvm::SmallVectorTemplateCommon.3" = type { %"class.llvm::SmallVectorBase" }
%"struct.llvm::SmallVectorStorage.4" = type { [3712 x i8] }
%"class.std::map" = type { %"class.std::_Rb_tree" }
%"class.std::_Rb_tree" = type { %"struct.std::_Rb_tree<std::pair<std::__cxx11::basic_string<char>, llvm::MachO::EncodeKind>, std::pair<const std::pair<std::__cxx11::basic_string<char>, llvm::MachO::EncodeKind>, std::pair<std::__cxx11::basic_string<char>, llvm::MachO::EncodeKind>>, std::_Select1st<std::pair<const std::pair<std::__cxx11::basic_string<char>, llvm::MachO::EncodeKind>, std::pair<std::__cxx11::basic_string<char>, llvm::MachO::EncodeKind>>>, std::less<std::pair<std::__cxx11::basic_string<char>, llvm::MachO::EncodeKind>>>::_Rb_tree_impl" }
%"struct.std::_Rb_tree<std::pair<std::__cxx11::basic_string<char>, llvm::MachO::EncodeKind>, std::pair<const std::pair<std::__cxx11::basic_string<char>, llvm::MachO::EncodeKind>, std::pair<std::__cxx11::basic_string<char>, llvm::MachO::EncodeKind>>, std::_Select1st<std::pair<const std::pair<std::__cxx11::basic_string<char>, llvm::MachO::EncodeKind>, std::pair<std::__cxx11::basic_string<char>, llvm::MachO::EncodeKind>>>, std::less<std::pair<std::__cxx11::basic_string<char>, llvm::MachO::EncodeKind>>>::_Rb_tree_impl" = type { [8 x i8], %"struct.std::_Rb_tree_header" }
%"struct.std::_Rb_tree_header" = type { %"struct.std::_Rb_tree_node_base", i64 }
%"struct.std::_Rb_tree_node_base" = type { i32, ptr, ptr, ptr }
%"class.std::unique_ptr" = type { %"struct.std::__uniq_ptr_data" }
%"struct.std::__uniq_ptr_data" = type { %"class.std::__uniq_ptr_impl" }
%"class.std::__uniq_ptr_impl" = type { %"class.std::tuple" }
%"class.std::tuple" = type { %"struct.std::_Tuple_impl" }
%"struct.std::_Tuple_impl" = type { %"struct.std::_Head_base.9" }
%"struct.std::_Head_base.9" = type { ptr }
%"class.llvm::StringMap" = type { %"class.llvm::StringMapImpl" }
%"class.llvm::StringMapImpl" = type { ptr, i32, i32, i32, i32 }
%"struct.clang::installapi::DylibVerifier::VerifierContext" = type { %"class.llvm::MachO::Target", ptr, i32, i8, i8, ptr }
%"class.llvm::MachO::Target" = type { i8, i32, %"class.llvm::VersionTuple" }
%"class.llvm::VersionTuple" = type { i64, i64 }
%"class.llvm::SmallVector.10" = type { %"class.llvm::SmallVectorImpl.11", %"struct.llvm::SmallVectorStorage.14" }
%"class.llvm::SmallVectorImpl.11" = type { %"class.llvm::SmallVectorTemplateBase.12" }
%"class.llvm::SmallVectorTemplateBase.12" = type { %"class.llvm::SmallVectorTemplateCommon.13" }
%"class.llvm::SmallVectorTemplateCommon.13" = type { %"class.llvm::SmallVectorBase" }
%"struct.llvm::SmallVectorStorage.14" = type { [96 x i8] }
%"class.llvm::StringMapEntryBase" = type { i64 }
%"struct.llvm::MachO::RecordLoc" = type <{ %"class.std::__cxx11::basic_string", i32, [4 x i8] }>
%"struct.clang::installapi::DylibVerifier::DWARFContext" = type { i8, %"class.llvm::StringMap.231" }
%"class.llvm::StringMap.231" = type { %"class.llvm::StringMapImpl" }
%"class.llvm::StringMapEntryStorage.352" = type { %"class.llvm::StringMapEntryBase", %"struct.llvm::MachO::RecordLoc" }

; Function Attrs: mustprogress nounwind uwtable
define linkonce_odr hidden void @_ZN4llvm5MachO9RecordLocD2Ev(ptr noundef nonnull align 8 dereferenceable(36) %0) unnamed_addr #0 comdat align 2 {
  %2 = alloca ptr, align 8
  store ptr %0, ptr %2, align 8
  %3 = load ptr, ptr %2, align 8
  %4 = getelementptr inbounds nuw %"struct.llvm::MachO::RecordLoc", ptr %3, i32 0, i32 0
  call void @_ZNSt7__cxx1112basic_stringIcSt11char_traitsIcESaIcEED1Ev(ptr noundef nonnull align 8 dereferenceable(32) %4) #10
  ret void
}

; Function Attrs: mustprogress nounwind uwtable
define linkonce_odr hidden void @_ZN4llvm21StringMapEntryStorageINS_5MachO9RecordLocEED2Ev(ptr noundef nonnull align 8 dereferenceable(48) %0) unnamed_addr #0 comdat align 2 {
  %2 = alloca ptr, align 8
  store ptr %0, ptr %2, align 8
  %3 = load ptr, ptr %2, align 8
  %4 = getelementptr inbounds nuw %"class.llvm::StringMapEntryStorage.352", ptr %3, i32 0, i32 1
  call void @_ZN4llvm5MachO9RecordLocD2Ev(ptr noundef nonnull align 8 dereferenceable(36) %4) #10
  ret void
}

; Function Attrs: mustprogress nounwind uwtable
define linkonce_odr hidden void @_ZN4llvm15MallocAllocator10DeallocateEPKvmm(ptr noundef nonnull align 1 dereferenceable(1) %0, ptr noundef %1, i64 noundef %2, i64 noundef %3) #0 comdat align 2 {
  %5 = alloca ptr, align 8
  %6 = alloca ptr, align 8
  %7 = alloca i64, align 8
  %8 = alloca i64, align 8
  store ptr %0, ptr %5, align 8
  store ptr %1, ptr %6, align 8
  store i64 %2, ptr %7, align 8
  store i64 %3, ptr %8, align 8
  %9 = load ptr, ptr %6, align 8
  %10 = load i64, ptr %7, align 8
  %11 = load i64, ptr %8, align 8
  call void @_ZN4llvm17deallocate_bufferEPvmm(ptr noundef %9, i64 noundef %10, i64 noundef %11)
  ret void
}

; Function Attrs: mustprogress nounwind uwtable
define linkonce_odr hidden void @_ZN4llvm14StringMapEntryINS_5MachO9RecordLocEED2Ev(ptr noundef nonnull align 8 dereferenceable(48) %0) unnamed_addr #0 comdat align 2 {
  %2 = alloca ptr, align 8
  store ptr %0, ptr %2, align 8
  %3 = load ptr, ptr %2, align 8
  call void @_ZN4llvm21StringMapEntryStorageINS_5MachO9RecordLocEED2Ev(ptr noundef nonnull align 8 dereferenceable(48) %3) #10
  ret void
}

; Function Attrs: mustprogress nounwind uwtable
define linkonce_odr hidden noundef i64 @_ZNK4llvm18StringMapEntryBase12getKeyLengthEv(ptr noundef nonnull align 8 dereferenceable(8) %0) #0 comdat align 2 {
  %2 = alloca ptr, align 8
  store ptr %0, ptr %2, align 8
  %3 = load ptr, ptr %2, align 8
  %4 = getelementptr inbounds nuw %"class.llvm::StringMapEntryBase", ptr %3, i32 0, i32 0
  %5 = load i64, ptr %4, align 8
  ret i64 %5
}

; Function Attrs: mustprogress nounwind uwtable
define linkonce_odr void @_ZSt4swapIjENSt9enable_ifIXsr6__and_ISt6__not_ISt15__is_tuple_likeIT_EESt21is_move_constructibleIS3_ESt18is_move_assignableIS3_EEE5valueEvE4typeERS3_SC_(ptr noundef nonnull align 4 dereferenceable(4) %0, ptr noundef nonnull align 4 dereferenceable(4) %1) #0 comdat {
  %3 = alloca ptr, align 8
  %4 = alloca ptr, align 8
  %5 = alloca i32, align 4
  store ptr %0, ptr %3, align 8
  store ptr %1, ptr %4, align 8
  %6 = load ptr, ptr %3, align 8
  %7 = load i32, ptr %6, align 4
  store i32 %7, ptr %5, align 4
  %8 = load ptr, ptr %4, align 8
  %9 = load i32, ptr %8, align 4
  %10 = load ptr, ptr %3, align 8
  store i32 %9, ptr %10, align 4
  %11 = load i32, ptr %5, align 4
  %12 = load ptr, ptr %4, align 8
  store i32 %11, ptr %12, align 4
  ret void
}

; Function Attrs: mustprogress nounwind uwtable
define linkonce_odr void @_ZSt4swapIPPN4llvm18StringMapEntryBaseEENSt9enable_ifIXsr6__and_ISt6__not_ISt15__is_tuple_likeIT_EESt21is_move_constructibleIS7_ESt18is_move_assignableIS7_EEE5valueEvE4typeERS7_SG_(ptr noundef nonnull align 8 dereferenceable(8) %0, ptr noundef nonnull align 8 dereferenceable(8) %1) #0 comdat {
  %3 = alloca ptr, align 8
  %4 = alloca ptr, align 8
  %5 = alloca ptr, align 8
  store ptr %0, ptr %3, align 8
  store ptr %1, ptr %4, align 8
  %6 = load ptr, ptr %3, align 8
  %7 = load ptr, ptr %6, align 8
  store ptr %7, ptr %5, align 8
  %8 = load ptr, ptr %4, align 8
  %9 = load ptr, ptr %8, align 8
  %10 = load ptr, ptr %3, align 8
  store ptr %9, ptr %10, align 8
  %11 = load ptr, ptr %5, align 8
  %12 = load ptr, ptr %4, align 8
  store ptr %11, ptr %12, align 8
  ret void
}

; Function Attrs: mustprogress nounwind uwtable
define linkonce_odr hidden void @_ZN4llvm13StringMapImplD2Ev(ptr noundef nonnull align 8 dereferenceable(24) %0) unnamed_addr #0 comdat align 2 {
  %2 = alloca ptr, align 8
  store ptr %0, ptr %2, align 8
  %3 = load ptr, ptr %2, align 8
  %4 = getelementptr inbounds nuw %"class.llvm::StringMapImpl", ptr %3, i32 0, i32 0
  %5 = load ptr, ptr %4, align 8
  call void @free(ptr noundef %5) #10
  ret void
}

; Function Attrs: mustprogress nounwind uwtable
define linkonce_odr hidden void @_ZN4llvm14StringMapEntryINS_5MachO9RecordLocEE7DestroyINS_15MallocAllocatorEEEvRT_(ptr noundef nonnull align 8 dereferenceable(48) %0, ptr noundef nonnull align 1 dereferenceable(1) %1) #0 comdat align 2 {
  %3 = alloca ptr, align 8
  %4 = alloca ptr, align 8
  %5 = alloca i64, align 8
  store ptr %0, ptr %3, align 8
  store ptr %1, ptr %4, align 8
  %6 = load ptr, ptr %3, align 8
  %7 = call noundef i64 @_ZNK4llvm18StringMapEntryBase12getKeyLengthEv(ptr noundef nonnull align 8 dereferenceable(8) %6)
  %8 = add i64 48, %7
  %9 = add i64 %8, 1
  store i64 %9, ptr %5, align 8
  call void @_ZN4llvm14StringMapEntryINS_5MachO9RecordLocEED2Ev(ptr noundef nonnull align 8 dereferenceable(48) %6) #10
  %10 = load ptr, ptr %4, align 8
  %11 = load i64, ptr %5, align 8
  call void @_ZN4llvm15MallocAllocator10DeallocateEPKvmm(ptr noundef nonnull align 1 dereferenceable(1) %10, ptr noundef %6, i64 noundef %11, i64 noundef 8)
  ret void
}

; Function Attrs: mustprogress nounwind uwtable
define linkonce_odr hidden noundef ptr @_ZN4llvm13StringMapImpl15getTombstoneValEv() #0 comdat align 2 {
  ret ptr inttoptr (i64 -8 to ptr)
}

; Function Attrs: mustprogress nounwind uwtable
define linkonce_odr hidden noundef zeroext i1 @_ZNK4llvm13StringMapImpl5emptyEv(ptr noundef nonnull align 8 dereferenceable(24) %0) #0 comdat align 2 {
  %2 = alloca ptr, align 8
  store ptr %0, ptr %2, align 8
  %3 = load ptr, ptr %2, align 8
  %4 = getelementptr inbounds nuw %"class.llvm::StringMapImpl", ptr %3, i32 0, i32 2
  %5 = load i32, ptr %4, align 4
  %6 = icmp eq i32 %5, 0
  ret i1 %6
}

; Function Attrs: mustprogress nounwind uwtable
define linkonce_odr void @_ZSt4swapIN4llvm15MallocAllocatorEENSt9enable_ifIXsr6__and_ISt6__not_ISt15__is_tuple_likeIT_EESt21is_move_constructibleIS5_ESt18is_move_assignableIS5_EEE5valueEvE4typeERS5_SE_(ptr noundef nonnull align 1 dereferenceable(1) %0, ptr noundef nonnull align 1 dereferenceable(1) %1) #0 comdat {
  %3 = alloca ptr, align 8
  %4 = alloca ptr, align 8
  store ptr %0, ptr %3, align 8
  store ptr %1, ptr %4, align 8
  ret void
}

; Function Attrs: mustprogress nounwind uwtable
define linkonce_odr hidden noundef nonnull align 1 dereferenceable(1) ptr @_ZN4llvm6detail15AllocatorHolderINS_15MallocAllocatorEE12getAllocatorEv(ptr noundef nonnull align 1 dereferenceable(1) %0) #0 comdat align 2 {
  %2 = alloca ptr, align 8
  store ptr %0, ptr %2, align 8
  %3 = load ptr, ptr %2, align 8
  ret ptr %3
}

; Function Attrs: mustprogress nounwind uwtable
define linkonce_odr hidden void @_ZN4llvm13StringMapImpl4swapERS0_(ptr noundef nonnull align 8 dereferenceable(24) %0, ptr noundef nonnull align 8 dereferenceable(24) %1) #0 comdat align 2 {
  %3 = alloca ptr, align 8
  %4 = alloca ptr, align 8
  store ptr %0, ptr %3, align 8
  store ptr %1, ptr %4, align 8
  %5 = load ptr, ptr %3, align 8
  %6 = getelementptr inbounds nuw %"class.llvm::StringMapImpl", ptr %5, i32 0, i32 0
  %7 = load ptr, ptr %4, align 8
  %8 = getelementptr inbounds nuw %"class.llvm::StringMapImpl", ptr %7, i32 0, i32 0
  call void @_ZSt4swapIPPN4llvm18StringMapEntryBaseEENSt9enable_ifIXsr6__and_ISt6__not_ISt15__is_tuple_likeIT_EESt21is_move_constructibleIS7_ESt18is_move_assignableIS7_EEE5valueEvE4typeERS7_SG_(ptr noundef nonnull align 8 dereferenceable(8) %6, ptr noundef nonnull align 8 dereferenceable(8) %8) #10
  %9 = getelementptr inbounds nuw %"class.llvm::StringMapImpl", ptr %5, i32 0, i32 1
  %10 = load ptr, ptr %4, align 8
  %11 = getelementptr inbounds nuw %"class.llvm::StringMapImpl", ptr %10, i32 0, i32 1
  call void @_ZSt4swapIjENSt9enable_ifIXsr6__and_ISt6__not_ISt15__is_tuple_likeIT_EESt21is_move_constructibleIS3_ESt18is_move_assignableIS3_EEE5valueEvE4typeERS3_SC_(ptr noundef nonnull align 4 dereferenceable(4) %9, ptr noundef nonnull align 4 dereferenceable(4) %11) #10
  %12 = getelementptr inbounds nuw %"class.llvm::StringMapImpl", ptr %5, i32 0, i32 2
  %13 = load ptr, ptr %4, align 8
  %14 = getelementptr inbounds nuw %"class.llvm::StringMapImpl", ptr %13, i32 0, i32 2
  call void @_ZSt4swapIjENSt9enable_ifIXsr6__and_ISt6__not_ISt15__is_tuple_likeIT_EESt21is_move_constructibleIS3_ESt18is_move_assignableIS3_EEE5valueEvE4typeERS3_SC_(ptr noundef nonnull align 4 dereferenceable(4) %12, ptr noundef nonnull align 4 dereferenceable(4) %14) #10
  %15 = getelementptr inbounds nuw %"class.llvm::StringMapImpl", ptr %5, i32 0, i32 3
  %16 = load ptr, ptr %4, align 8
  %17 = getelementptr inbounds nuw %"class.llvm::StringMapImpl", ptr %16, i32 0, i32 3
  call void @_ZSt4swapIjENSt9enable_ifIXsr6__and_ISt6__not_ISt15__is_tuple_likeIT_EESt21is_move_constructibleIS3_ESt18is_move_assignableIS3_EEE5valueEvE4typeERS3_SC_(ptr noundef nonnull align 4 dereferenceable(4) %15, ptr noundef nonnull align 4 dereferenceable(4) %17) #10
  ret void
}

; Function Attrs: mustprogress nounwind uwtable
define linkonce_odr hidden void @_ZN4llvm9StringMapINS_5MachO9RecordLocENS_15MallocAllocatorEED2Ev(ptr noundef nonnull align 8 dereferenceable(24) %0) unnamed_addr #0 comdat align 2 {
  %2 = alloca ptr, align 8
  %3 = alloca i32, align 4
  %4 = alloca i32, align 4
  %5 = alloca ptr, align 8
  store ptr %0, ptr %2, align 8
  %6 = load ptr, ptr %2, align 8
  %7 = call noundef zeroext i1 @_ZNK4llvm13StringMapImpl5emptyEv(ptr noundef nonnull align 8 dereferenceable(24) %6)
  br i1 %7, label %36, label %8

8:                                                ; preds = %1
  store i32 0, ptr %3, align 4
  %9 = getelementptr inbounds nuw %"class.llvm::StringMapImpl", ptr %6, i32 0, i32 1
  %10 = load i32, ptr %9, align 8
  store i32 %10, ptr %4, align 4
  br label %11

11:                                               ; preds = %32, %8
  %12 = load i32, ptr %3, align 4
  %13 = load i32, ptr %4, align 4
  %14 = icmp ne i32 %12, %13
  br i1 %14, label %15, label %35

15:                                               ; preds = %11
  %16 = getelementptr inbounds nuw %"class.llvm::StringMapImpl", ptr %6, i32 0, i32 0
  %17 = load ptr, ptr %16, align 8
  %18 = load i32, ptr %3, align 4
  %19 = zext i32 %18 to i64
  %20 = getelementptr inbounds ptr, ptr %17, i64 %19
  %21 = load ptr, ptr %20, align 8
  store ptr %21, ptr %5, align 8
  %22 = load ptr, ptr %5, align 8
  %23 = icmp ne ptr %22, null
  br i1 %23, label %24, label %31

24:                                               ; preds = %15
  %25 = load ptr, ptr %5, align 8
  %26 = call noundef ptr @_ZN4llvm13StringMapImpl15getTombstoneValEv()
  %27 = icmp ne ptr %25, %26
  br i1 %27, label %28, label %31

28:                                               ; preds = %24
  %29 = load ptr, ptr %5, align 8
  %30 = call noundef nonnull align 1 dereferenceable(1) ptr @_ZN4llvm6detail15AllocatorHolderINS_15MallocAllocatorEE12getAllocatorEv(ptr noundef nonnull align 1 dereferenceable(1) %6)
  call void @_ZN4llvm14StringMapEntryINS_5MachO9RecordLocEE7DestroyINS_15MallocAllocatorEEEvRT_(ptr noundef nonnull align 8 dereferenceable(48) %29, ptr noundef nonnull align 1 dereferenceable(1) %30)
  br label %31

31:                                               ; preds = %28, %24, %15
  br label %32

32:                                               ; preds = %31
  %33 = load i32, ptr %3, align 4
  %34 = add i32 %33, 1
  store i32 %34, ptr %3, align 4
  br label %11, !llvm.loop !4

35:                                               ; preds = %11
  br label %36

36:                                               ; preds = %35, %1
  call void @_ZN4llvm13StringMapImplD2Ev(ptr noundef nonnull align 8 dereferenceable(24) %6) #10
  ret void
}

; Function Attrs: mustprogress nounwind uwtable
define linkonce_odr hidden noundef nonnull align 8 dereferenceable(24) ptr @_ZN4llvm9StringMapINS_5MachO9RecordLocENS_15MallocAllocatorEEaSES4_(ptr noundef nonnull align 8 dereferenceable(24) %0, ptr noundef %1) #0 comdat align 2 {
  %3 = alloca ptr, align 8
  %4 = alloca ptr, align 8
  store ptr %0, ptr %3, align 8
  store ptr %1, ptr %4, align 8
  %5 = load ptr, ptr %3, align 8
  call void @_ZN4llvm13StringMapImpl4swapERS0_(ptr noundef nonnull align 8 dereferenceable(24) %5, ptr noundef nonnull align 8 dereferenceable(24) %1)
  %6 = call noundef nonnull align 1 dereferenceable(1) ptr @_ZN4llvm6detail15AllocatorHolderINS_15MallocAllocatorEE12getAllocatorEv(ptr noundef nonnull align 1 dereferenceable(1) %5)
  %7 = call noundef nonnull align 1 dereferenceable(1) ptr @_ZN4llvm6detail15AllocatorHolderINS_15MallocAllocatorEE12getAllocatorEv(ptr noundef nonnull align 1 dereferenceable(1) %1)
  call void @_ZSt4swapIN4llvm15MallocAllocatorEENSt9enable_ifIXsr6__and_ISt6__not_ISt15__is_tuple_likeIT_EESt21is_move_constructibleIS5_ESt18is_move_assignableIS5_EEE5valueEvE4typeERS5_SE_(ptr noundef nonnull align 1 dereferenceable(1) %6, ptr noundef nonnull align 1 dereferenceable(1) %7) #10
  ret ptr %5
}

; Function Attrs: mustprogress nounwind uwtable
define linkonce_odr hidden noundef zeroext i1 @_ZNK4llvm9StringRef5emptyEv(ptr noundef nonnull align 8 dereferenceable(16) %0) #0 comdat align 2 {
  %2 = alloca ptr, align 8
  store ptr %0, ptr %2, align 8
  %3 = load ptr, ptr %2, align 8
  %4 = getelementptr inbounds nuw %"class.llvm::StringRef", ptr %3, i32 0, i32 1
  %5 = load i64, ptr %4, align 8
  %6 = icmp eq i64 %5, 0
  ret i1 %6
}

; Function Attrs: mustprogress nounwind uwtable
define dso_local void @_ZN5clang10installapi13DylibVerifier31accumulateSrcLocForDylibSymbolsEv(ptr noundef nonnull align 8 dereferenceable(4088) %0) #0 align 2 {
  %2 = alloca ptr, align 8
  %3 = alloca %"class.llvm::StringMap.231", align 8
  %4 = alloca %"class.llvm::StringRef", align 8
  store ptr %0, ptr %2, align 8
  %5 = load ptr, ptr %2, align 8
  %6 = getelementptr inbounds nuw %"class.clang::installapi::DylibVerifier", ptr %5, i32 0, i32 7
  %7 = call noundef zeroext i1 @_ZNK4llvm9StringRef5emptyEv(ptr noundef nonnull align 8 dereferenceable(16) %6)
  br i1 %7, label %8, label %9

8:                                                ; preds = %1
  br label %31

9:                                                ; preds = %1
  %10 = getelementptr inbounds nuw %"class.clang::installapi::DylibVerifier", ptr %5, i32 0, i32 11
  %11 = load ptr, ptr %10, align 8
  %12 = getelementptr inbounds nuw %"struct.clang::installapi::DylibVerifier::DWARFContext", ptr %11, i32 0, i32 0
  %13 = load i8, ptr %12, align 8
  %14 = trunc i8 %13 to i1
  br i1 %14, label %15, label %16

15:                                               ; preds = %9
  br label %31

16:                                               ; preds = %9
  %17 = getelementptr inbounds nuw %"class.clang::installapi::DylibVerifier", ptr %5, i32 0, i32 11
  %18 = load ptr, ptr %17, align 8
  %19 = getelementptr inbounds nuw %"struct.clang::installapi::DylibVerifier::DWARFContext", ptr %18, i32 0, i32 0
  store i8 1, ptr %19, align 8
  %20 = getelementptr inbounds nuw %"class.clang::installapi::DylibVerifier", ptr %5, i32 0, i32 7
  call void @llvm.memcpy.p0.p0.i64(ptr align 8 %4, ptr align 8 %20, i64 16, i1 false)
  %21 = getelementptr inbounds nuw %"class.clang::installapi::DylibVerifier", ptr %5, i32 0, i32 10
  %22 = getelementptr inbounds nuw %"struct.clang::installapi::DylibVerifier::VerifierContext", ptr %21, i32 0, i32 0
  %23 = getelementptr inbounds nuw { ptr, i64 }, ptr %4, i32 0, i32 0
  %24 = load ptr, ptr %23, align 8
  %25 = getelementptr inbounds nuw { ptr, i64 }, ptr %4, i32 0, i32 1
  %26 = load i64, ptr %25, align 8
  call void @_ZN4llvm5MachO11DylibReader27accumulateSourceLocFromDSYMENS_9StringRefERKNS0_6TargetE(ptr dead_on_unwind writable sret(%"class.llvm::StringMap.231") align 8 %3, ptr %24, i64 %26, ptr noundef nonnull align 4 dereferenceable(24) %22)
  %27 = getelementptr inbounds nuw %"class.clang::installapi::DylibVerifier", ptr %5, i32 0, i32 11
  %28 = load ptr, ptr %27, align 8
  %29 = getelementptr inbounds nuw %"struct.clang::installapi::DylibVerifier::DWARFContext", ptr %28, i32 0, i32 1
  %30 = call noundef nonnull align 8 dereferenceable(24) ptr @_ZN4llvm9StringMapINS_5MachO9RecordLocENS_15MallocAllocatorEEaSES4_(ptr noundef nonnull align 8 dereferenceable(24) %29, ptr noundef %3)
  call void @_ZN4llvm9StringMapINS_5MachO9RecordLocENS_15MallocAllocatorEED2Ev(ptr noundef nonnull align 8 dereferenceable(24) %3) #10
  br label %31

31:                                               ; preds = %16, %15, %8
  ret void
}