; Function Attrs: mustprogress nounwind uwtable
define dso_local void @_ZN5clang10installapi13DylibVerifier31accumulateSrcLocForDylibSymbolsEv(ptr noundef nonnull align 8 dereferenceable(4088) %0) local_unnamed_addr #0 align 2 {
  %2 = alloca %"class.llvm::StringMap.231", align 8
  %3 = getelementptr inbounds nuw i8, ptr %0, i64 3872
  %4 = getelementptr inbounds nuw i8, ptr %0, i64 3880
  %5 = load i64, ptr %4, align 8
  %6 = icmp eq i64 %5, 0
  br i1 %6, label %41, label %7

7:                                                ; preds = %1
  %8 = getelementptr inbounds nuw i8, ptr %0, i64 3968
  %9 = load ptr, ptr %8, align 8
  %10 = load i8, ptr %9, align 8
  %11 = trunc i8 %10 to i1
  br i1 %11, label %41, label %12

12:                                               ; preds = %7
  store i8 1, ptr %9, align 8
  %.sroa.0.0.copyload = load ptr, ptr %3, align 8
  %.sroa.2.0.copyload = load i64, ptr %4, align 8
  %13 = getelementptr inbounds nuw i8, ptr %0, i64 3920
  call void @_ZN4llvm5MachO11DylibReader27accumulateSourceLocFromDSYMENS_9StringRefERKNS0_6TargetE(ptr dead_on_unwind nonnull writable sret(%"class.llvm::StringMap.231") align 8 %2, ptr %.sroa.0.0.copyload, i64 %.sroa.2.0.copyload, ptr noundef nonnull align 4 dereferenceable(24) %13) #18
  %14 = load ptr, ptr %8, align 8
  %15 = getelementptr inbounds nuw i8, ptr %14, i64 8
  %16 = load ptr, ptr %15, align 8
  %17 = load ptr, ptr %2, align 8
  store ptr %17, ptr %15, align 8
  store ptr %16, ptr %2, align 8
  %18 = getelementptr inbounds nuw i8, ptr %14, i64 16
  %19 = getelementptr inbounds nuw i8, ptr %2, i64 8
  %20 = load i32, ptr %18, align 4
  %21 = load i32, ptr %19, align 8
  store i32 %21, ptr %18, align 4
  store i32 %20, ptr %19, align 8
  %22 = getelementptr inbounds nuw i8, ptr %14, i64 20
  %23 = getelementptr inbounds nuw i8, ptr %2, i64 12
  %24 = load i32, ptr %22, align 4
  %25 = load i32, ptr %23, align 4
  store i32 %25, ptr %22, align 4
  store i32 %24, ptr %23, align 4
  %26 = getelementptr inbounds nuw i8, ptr %14, i64 24
  %27 = getelementptr inbounds nuw i8, ptr %2, i64 16
  %28 = load i32, ptr %26, align 4
  %29 = load i32, ptr %27, align 8
  store i32 %29, ptr %26, align 4
  store i32 %28, ptr %27, align 8
  %30 = icmp eq i32 %24, 0
  %.not10.i = icmp eq i32 %20, 0
  %or.cond = select i1 %30, i1 true, i1 %.not10.i
  br i1 %or.cond, label %_ZN4llvm9StringMapINS_5MachO9RecordLocENS_15MallocAllocatorEED2Ev.exit, label %.lr.ph.preheader.i

.lr.ph.preheader.i:                               ; preds = %12
  %31 = zext i32 %20 to i64
  br label %.lr.ph.i

.lr.ph.i:                                         ; preds = %39, %.lr.ph.preheader.i
  %indvars.iv.i = phi i64 [ 0, %.lr.ph.preheader.i ], [ %indvars.iv.next.i, %39 ]
  %32 = load ptr, ptr %2, align 8
  %33 = getelementptr inbounds nuw ptr, ptr %32, i64 %indvars.iv.i
  %34 = load ptr, ptr %33, align 8
  %magicptr.i = ptrtoint ptr %34 to i64
  switch i64 %magicptr.i, label %35 [
    i64 0, label %39
    i64 -8, label %39
  ]

35:                                               ; preds = %.lr.ph.i
  %36 = load i64, ptr %34, align 8
  %37 = add i64 %36, 49
  %38 = getelementptr inbounds nuw i8, ptr %34, i64 8
  call void @_ZNSt7__cxx1112basic_stringIcSt11char_traitsIcESaIcEED1Ev(ptr noundef nonnull align 8 dereferenceable(36) %38) #18
  call void @_ZN4llvm17deallocate_bufferEPvmm(ptr noundef nonnull align 8 dereferenceable(48) %34, i64 noundef %37, i64 noundef 8) #18
  br label %39

39:                                               ; preds = %35, %.lr.ph.i, %.lr.ph.i
  %indvars.iv.next.i = add nuw nsw i64 %indvars.iv.i, 1
  %.not.i = icmp eq i64 %indvars.iv.next.i, %31
  br i1 %.not.i, label %_ZN4llvm9StringMapINS_5MachO9RecordLocENS_15MallocAllocatorEED2Ev.exit.loopexit, label %.lr.ph.i, !llvm.loop !88

_ZN4llvm9StringMapINS_5MachO9RecordLocENS_15MallocAllocatorEED2Ev.exit.loopexit: ; preds = %39
  %.pre = load ptr, ptr %2, align 8
  br label %_ZN4llvm9StringMapINS_5MachO9RecordLocENS_15MallocAllocatorEED2Ev.exit

_ZN4llvm9StringMapINS_5MachO9RecordLocENS_15MallocAllocatorEED2Ev.exit: ; preds = %_ZN4llvm9StringMapINS_5MachO9RecordLocENS_15MallocAllocatorEED2Ev.exit.loopexit, %12
  %40 = phi ptr [ %.pre, %_ZN4llvm9StringMapINS_5MachO9RecordLocENS_15MallocAllocatorEED2Ev.exit.loopexit ], [ %16, %12 ]
  call void @free(ptr noundef %40) #18
  br label %41

41:                                               ; preds = %7, %1, %_ZN4llvm9StringMapINS_5MachO9RecordLocENS_15MallocAllocatorEED2Ev.exit
  ret void
}